; Function Attrs: mustprogress nounwind willreturn uwtable
define noalias noundef ptr @av_realloc(ptr noundef captures(none) %0, i64 noundef %1) local_unnamed_addr #4 {
  %3 = load atomic i64, ptr @max_alloc_size monotonic, align 8
  %4 = icmp ugt i64 %1, %3
  br i1 %4, label %8, label %5

5:                                                ; preds = %2
  %6 = tail call i64 @llvm.umax.i64(i64 %1, i64 1)
  %7 = tail call ptr @realloc(ptr noundef %0, i64 noundef %6) #22
  br label %8

8:                                                ; preds = %2, %5
  %.0 = phi ptr [ %7, %5 ], [ null, %2 ]
  ret ptr %.0
}